target datalayout = "e-m:e-p270:32:32-p271:32:32-p272:64:64-i64:64-i128:128-f80:128-n8:16:32:64-S128"
target triple = "x86_64-pc-linux-gnu"

%struct.AVCAST5 = type { [17 x i32], [17 x i32], i32 }

; Function Attrs: alwaysinline nounwind willreturn memory(none) uwtable
define internal i32 @av_bswap32(i32 noundef %0) #6 {
  %2 = alloca i32, align 4
  store i32 %0, ptr %2, align 4, !tbaa !11
  %3 = load i32, ptr %2, align 4, !tbaa !11
  %4 = shl i32 %3, 8
  %5 = and i32 %4, 65280
  %6 = load i32, ptr %2, align 4, !tbaa !11
  %7 = lshr i32 %6, 8
  %8 = and i32 %7, 255
  %9 = or i32 %5, %8
  %10 = shl i32 %9, 16
  %11 = load i32, ptr %2, align 4, !tbaa !11
  %12 = lshr i32 %11, 16
  %13 = shl i32 %12, 8
  %14 = and i32 %13, 65280
  %15 = load i32, ptr %2, align 4, !tbaa !11
  %16 = lshr i32 %15, 16
  %17 = lshr i32 %16, 8
  %18 = and i32 %17, 255
  %19 = or i32 %14, %18
  %20 = or i32 %10, %19
  ret i32 %20
}

; Function Attrs: cold nounwind optsize uwtable
define i32 @av_cast5_init(ptr noundef %0, ptr noundef %1, i32 noundef %2) #2 {
  %4 = alloca i32, align 4
  %5 = alloca ptr, align 8
  %6 = alloca ptr, align 8
  %7 = alloca i32, align 4
  %8 = alloca [16 x i8], align 16
  %9 = alloca i32, align 4
  %10 = alloca [4 x i32], align 16
  %11 = alloca [4 x i32], align 16
  %12 = alloca i32, align 4
  store ptr %0, ptr %5, align 8, !tbaa !4
  store ptr %1, ptr %6, align 8, !tbaa !9
  store i32 %2, ptr %7, align 4, !tbaa !11
  call void @llvm.lifetime.start.p0(i64 16, ptr %8) #7
  call void @llvm.lifetime.start.p0(i64 4, ptr %9) #7
  call void @llvm.lifetime.start.p0(i64 16, ptr %10) #7
  call void @llvm.lifetime.start.p0(i64 16, ptr %11) #7
  %13 = load i32, ptr %7, align 4, !tbaa !11
  %14 = srem i32 %13, 8
  %15 = icmp ne i32 %14, 0
  br i1 %15, label %22, label %16

16:                                               ; preds = %3
  %17 = load i32, ptr %7, align 4, !tbaa !11
  %18 = icmp slt i32 %17, 40
  br i1 %18, label %22, label %19

19:                                               ; preds = %16
  %20 = load i32, ptr %7, align 4, !tbaa !11
  %21 = icmp sgt i32 %20, 128
  br i1 %21, label %22, label %23

22:                                               ; preds = %19, %16, %3
  store i32 -22, ptr %4, align 4
  store i32 1, ptr %12, align 4
  br label %92

23:                                               ; preds = %19
  %24 = getelementptr inbounds [16 x i8], ptr %8, i64 0, i64 0
  call void @llvm.memset.p0.i64(ptr align 16 %24, i8 0, i64 16, i1 false)
  %25 = getelementptr inbounds [16 x i8], ptr %8, i64 0, i64 0
  %26 = load ptr, ptr %6, align 8, !tbaa !9
  %27 = load i32, ptr %7, align 4, !tbaa !11
  %28 = ashr i32 %27, 3
  %29 = sext i32 %28 to i64
  call void @llvm.memcpy.p0.p0.i64(ptr align 16 %25, ptr align 1 %26, i64 %29, i1 false)
  %30 = load i32, ptr %7, align 4, !tbaa !11
  %31 = icmp sle i32 %30, 80
  %32 = select i1 %31, i32 12, i32 16
  %33 = load ptr, ptr %5, align 8, !tbaa !4
  %34 = getelementptr inbounds nuw %struct.AVCAST5, ptr %33, i32 0, i32 2
  store i32 %32, ptr %34, align 4, !tbaa !13
  store i32 0, ptr %9, align 4, !tbaa !11
  br label %35

35:                                               ; preds = %49, %23
  %36 = load i32, ptr %9, align 4, !tbaa !11
  %37 = icmp slt i32 %36, 4
  br i1 %37, label %38, label %52

38:                                               ; preds = %35
  %39 = getelementptr inbounds [16 x i8], ptr %8, i64 0, i64 0
  %40 = load i32, ptr %9, align 4, !tbaa !11
  %41 = mul nsw i32 4, %40
  %42 = sext i32 %41 to i64
  %43 = getelementptr inbounds i8, ptr %39, i64 %42
  %44 = load i32, ptr %43, align 1, !tbaa !15
  %45 = call i32 @av_bswap32(i32 noundef %44) #8
  %46 = load i32, ptr %9, align 4, !tbaa !11
  %47 = sext i32 %46 to i64
  %48 = getelementptr inbounds [4 x i32], ptr %11, i64 0, i64 %47
  store i32 %45, ptr %48, align 4, !tbaa !11
  br label %49

49:                                               ; preds = %38
  %50 = load i32, ptr %9, align 4, !tbaa !11
  %51 = add nsw i32 %50, 1
  store i32 %51, ptr %9, align 4, !tbaa !11
  br label %35, !llvm.loop !16

52:                                               ; preds = %35
  %53 = load ptr, ptr %5, align 8, !tbaa !4
  %54 = getelementptr inbounds nuw %struct.AVCAST5, ptr %53, i32 0, i32 2
  %55 = load i32, ptr %54, align 4, !tbaa !13
  %56 = load ptr, ptr %5, align 8, !tbaa !4
  %57 = getelementptr inbounds nuw %struct.AVCAST5, ptr %56, i32 0, i32 0
  %58 = getelementptr inbounds [17 x i32], ptr %57, i64 0, i64 0
  %59 = getelementptr inbounds [4 x i32], ptr %11, i64 0, i64 0
  %60 = getelementptr inbounds [4 x i32], ptr %10, i64 0, i64 0
  call void @generate_round_keys(i32 noundef %55, ptr noundef %58, ptr noundef %59, ptr noundef %60)
  %61 = load ptr, ptr %5, align 8, !tbaa !4
  %62 = getelementptr inbounds nuw %struct.AVCAST5, ptr %61, i32 0, i32 2
  %63 = load i32, ptr %62, align 4, !tbaa !13
  %64 = load ptr, ptr %5, align 8, !tbaa !4
  %65 = getelementptr inbounds nuw %struct.AVCAST5, ptr %64, i32 0, i32 1
  %66 = getelementptr inbounds [17 x i32], ptr %65, i64 0, i64 0
  %67 = getelementptr inbounds [4 x i32], ptr %11, i64 0, i64 0
  %68 = getelementptr inbounds [4 x i32], ptr %10, i64 0, i64 0
  call void @generate_round_keys(i32 noundef %63, ptr noundef %66, ptr noundef %67, ptr noundef %68)
  store i32 0, ptr %9, align 4, !tbaa !11
  br label %69

69:                                               ; preds = %88, %52
  %70 = load i32, ptr %9, align 4, !tbaa !11
  %71 = load ptr, ptr %5, align 8, !tbaa !4
  %72 = getelementptr inbounds nuw %struct.AVCAST5, ptr %71, i32 0, i32 2
  %73 = load i32, ptr %72, align 4, !tbaa !13
  %74 = icmp sle i32 %70, %73
  br i1 %74, label %75, label %91

75:                                               ; preds = %69
  %76 = load ptr, ptr %5, align 8, !tbaa !4
  %77 = getelementptr inbounds nuw %struct.AVCAST5, ptr %76, i32 0, i32 1
  %78 = load i32, ptr %9, align 4, !tbaa !11
  %79 = sext i32 %78 to i64
  %80 = getelementptr inbounds [17 x i32], ptr %77, i64 0, i64 %79
  %81 = load i32, ptr %80, align 4, !tbaa !11
  %82 = and i32 %81, 31
  %83 = load ptr, ptr %5, align 8, !tbaa !4
  %84 = getelementptr inbounds nuw %struct.AVCAST5, ptr %83, i32 0, i32 1
  %85 = load i32, ptr %9, align 4, !tbaa !11
  %86 = sext i32 %85 to i64
  %87 = getelementptr inbounds [17 x i32], ptr %84, i64 0, i64 %86
  store i32 %82, ptr %87, align 4, !tbaa !11
  br label %88

88:                                               ; preds = %75
  %89 = load i32, ptr %9, align 4, !tbaa !11
  %90 = add nsw i32 %89, 1
  store i32 %90, ptr %9, align 4, !tbaa !11
  br label %69, !llvm.loop !18

91:                                               ; preds = %69
  store i32 0, ptr %4, align 4
  store i32 1, ptr %12, align 4
  br label %92

92:                                               ; preds = %91, %22
  call void @llvm.lifetime.end.p0(i64 16, ptr %11) #7
  call void @llvm.lifetime.end.p0(i64 16, ptr %10) #7
  call void @llvm.lifetime.end.p0(i64 4, ptr %9) #7
  call void @llvm.lifetime.end.p0(i64 16, ptr %8) #7
  %93 = load i32, ptr %4, align 4
  ret i32 %93
}