; Function Attrs: cold nofree norecurse nosync nounwind optsize memory(argmem: readwrite) uwtable
define range(i32 -22, 1) i32 @av_cast5_init(ptr noundef captures(none) %0, ptr noundef readonly captures(none) %1, i32 noundef %2) local_unnamed_addr #2 {
  %4 = alloca [16 x i8], align 16
  %5 = alloca [4 x i32], align 16
  %6 = alloca [4 x i32], align 16
  call void @llvm.lifetime.start.p0(i64 16, ptr nonnull %4) #10
  call void @llvm.lifetime.start.p0(i64 16, ptr nonnull %5) #10
  call void @llvm.lifetime.start.p0(i64 16, ptr nonnull %6) #10
  %7 = and i32 %2, 7
  %8 = icmp ne i32 %7, 0
  %9 = add i32 %2, -129
  %10 = icmp ult i32 %9, -89
  %or.cond3 = or i1 %8, %10
  br i1 %or.cond3, label %.loopexit, label %11

11:                                               ; preds = %3
  call void @llvm.memset.p0.i64(ptr noundef nonnull align 16 dereferenceable(16) %4, i8 0, i64 16, i1 false)
  %12 = lshr exact i32 %2, 3
  %13 = zext nneg i32 %12 to i64
  call void @llvm.memcpy.p0.p0.i64(ptr nonnull align 16 %4, ptr align 1 %1, i64 %13, i1 false)
  %14 = icmp samesign ult i32 %2, 81
  %15 = select i1 %14, i32 12, i32 16
  %16 = getelementptr inbounds nuw i8, ptr %0, i64 136
  store i32 %15, ptr %16, align 4, !tbaa !4
  br label %17

17:                                               ; preds = %11, %17
  %indvars.iv = phi i64 [ 0, %11 ], [ %indvars.iv.next, %17 ]
  %18 = shl nuw nsw i64 %indvars.iv, 2
  %19 = getelementptr inbounds nuw i8, ptr %4, i64 %18
  %20 = load i32, ptr %19, align 4, !tbaa !9
  %21 = tail call i32 @llvm.bswap.i32(i32 %20)
  %22 = getelementptr inbounds nuw [4 x i32], ptr %6, i64 0, i64 %indvars.iv
  store i32 %21, ptr %22, align 4, !tbaa !10
  %indvars.iv.next = add nuw nsw i64 %indvars.iv, 1
  %exitcond.not = icmp eq i64 %indvars.iv.next, 4
  br i1 %exitcond.not, label %23, label %17, !llvm.loop !11

23:                                               ; preds = %17
  call fastcc void @generate_round_keys(i32 noundef %15, ptr noundef nonnull %0, ptr noundef %6, ptr noundef %5)
  %24 = load i32, ptr %16, align 4, !tbaa !4
  %25 = getelementptr inbounds nuw i8, ptr %0, i64 68
  call fastcc void @generate_round_keys(i32 noundef %24, ptr noundef nonnull %25, ptr noundef %6, ptr noundef %5)
  %26 = load i32, ptr %16, align 4, !tbaa !4
  %.not28 = icmp slt i32 %26, 0
  br i1 %.not28, label %.loopexit, label %.lr.ph

.lr.ph:                                           ; preds = %23, %.lr.ph
  %indvars.iv31 = phi i64 [ %indvars.iv.next32, %.lr.ph ], [ 0, %23 ]
  %27 = getelementptr inbounds nuw [17 x i32], ptr %25, i64 0, i64 %indvars.iv31
  %28 = load i32, ptr %27, align 4, !tbaa !10
  %29 = and i32 %28, 31
  store i32 %29, ptr %27, align 4, !tbaa !10
  %indvars.iv.next32 = add nuw nsw i64 %indvars.iv31, 1
  %30 = load i32, ptr %16, align 4, !tbaa !4
  %31 = sext i32 %30 to i64
  %.not.not = icmp slt i64 %indvars.iv31, %31
  br i1 %.not.not, label %.lr.ph, label %.loopexit, !llvm.loop !13

.loopexit:                                        ; preds = %.lr.ph, %23, %3
  %.025 = phi i32 [ -22, %3 ], [ 0, %23 ], [ 0, %.lr.ph ]
  call void @llvm.lifetime.end.p0(i64 16, ptr nonnull %6) #10
  call void @llvm.lifetime.end.p0(i64 16, ptr nonnull %5) #10
  call void @llvm.lifetime.end.p0(i64 16, ptr nonnull %4) #10
  ret i32 %.025
}